Certificate:
    Data:
        Version: 1 (0x0)
        Serial Number: 4099 (0x1003)
        Signature Algorithm: sha256WithRSAEncryption
        Issuer: C=CA, ST=Quebec, L=Sherbrooke, O=Universite de Sherbrooke, OU=GEGI, CN=autorite/emailAddress=autorite@gegi
        Validity
            Not Before: Jan 14 18:22:25 2026 GMT
            Not After : Jan 14 18:22:25 2027 GMT
        Subject: C=CA, ST=Quebec, O=Universite de Sherbrooke, OU=GEGI, CN=gei761
        Subject Public Key Info:
            Public Key Algorithm: rsaEncryption
                Public-Key: (2048 bit)
                Modulus:
                    00:a9:58:49:13:7c:70:41:51:b4:d0:13:50:53:0e:
                    2c:86:2c:45:6c:dc:4a:d5:e1:f7:26:d3:82:b5:d2:
                    59:d4:37:0b:90:83:34:3b:71:eb:c9:99:ca:fd:9e:
                    d5:ff:be:d4:80:06:4c:ef:40:0d:9b:f9:c4:74:70:
                    ac:5b:8e:54:0d:72:a1:92:69:50:c6:e4:7d:08:84:
                    1a:a5:02:c6:a3:5c:c0:dc:55:3b:bb:bd:1a:46:31:
                    45:37:7e:23:c0:c7:db:fe:e5:39:5e:a9:b2:74:58:
                    de:69:b4:0f:52:49:43:de:2c:49:01:29:37:bd:1d:
                    ad:8a:1d:3b:6a:2f:17:54:59:63:26:18:c7:5b:6e:
                    30:9b:88:7a:9f:cf:d8:0e:55:15:96:19:60:ef:43:
                    13:c8:28:14:c2:90:37:d3:b3:71:7c:38:a5:bf:3c:
                    69:ab:f8:4d:d2:64:f5:42:92:1d:1e:89:f9:77:61:
                    8e:21:e1:77:1f:00:1f:6b:da:58:6a:7c:9b:31:d5:
                    fc:a2:2d:20:00:7d:a9:4f:ef:c1:0d:5a:a0:95:1b:
                    47:79:ab:7c:50:2c:71:5a:4e:cc:a0:33:c8:33:4d:
                    c7:c2:ce:0e:50:cb:77:8a:c8:9b:63:c1:52:c7:23:
                    a3:a2:88:34:c5:57:06:c5:90:b8:b7:81:2c:87:77:
                    14:ed
                Exponent: 65537 (0x10001)
    Signature Algorithm: sha256WithRSAEncryption
    Signature Value:
        04:45:d4:cd:3d:be:cf:61:86:fe:aa:6b:f2:73:00:cb:5a:d6:
        0f:00:2a:7c:c5:61:68:60:2b:93:7e:ca:e2:a4:a0:7b:a3:fe:
        f2:21:37:a8:64:b3:59:78:c4:c8:06:7d:ef:b4:0c:1d:a0:15:
        1a:f4:6f:8b:4d:8b:1b:78:a8:99:27:9a:44:46:ed:69:88:26:
        11:80:5e:6d:0f:29:28:12:2d:63:08:64:5d:2a:56:97:a8:3f:
        4a:8c:e5:51:0e:31:7f:28:35:29:e6:f6:b7:d8:3b:78:09:88:
        40:e6:99:f9:13:b0:6b:1f:63:cb:03:f7:9f:78:3f:b6:e9:e7:
        69:52:29:4a:1b:c8:17:72:dc:a9:d1:7f:11:b9:60:6f:f4:b3:
        2b:61:9b:06:7c:c7:3f:af:46:3c:9e:f8:dd:48:ab:58:f0:a9:
        2d:92:e8:7d:3f:c6:26:48:c3:29:7e:21:c1:fe:f5:08:47:57:
        64:80:65:e7:1c:26:5a:17:7d:51:b4:44:5e:ae:d5:38:8a:ce:
        16:e7:07:4d:b8:bc:9d:9b:87:45:50:51:3d:73:01:5a:98:f2:
        dc:bd:a0:6d:a8:e8:f6:09:49:15:30:d4:d6:ba:c8:9e:25:1f:
        98:5f:9e:3b:61:9a:be:5d:07:e7:2b:b4:53:fb:e5:f3:27:78:
        40:9d:c7:06
-----BEGIN CERTIFICATE-----
MIIDbTCCAlUCAhADMA0GCSqGSIb3DQEBCwUAMIGWMQswCQYDVQQGEwJDQTEPMA0G
A1UECAwGUXVlYmVjMRMwEQYDVQQHDApTaGVyYnJvb2tlMSEwHwYDVQQKDBhVbml2
ZXJzaXRlIGRlIFNoZXJicm9va2UxDTALBgNVBAsMBEdFR0kxETAPBgNVBAMMCGF1
dG9yaXRlMRwwGgYJKoZIhvcNAQkBFg1hdXRvcml0ZUBnZWdpMB4XDTI2MDExNDE4
MjIyNVoXDTI3MDExNDE4MjIyNVowYTELMAkGA1UEBhMCQ0ExDzANBgNVBAgMBlF1
ZWJlYzEhMB8GA1UECgwYVW5pdmVyc2l0ZSBkZSBTaGVyYnJvb2tlMQ0wCwYDVQQL
DARHRUdJMQ8wDQYDVQQDDAZnZWk3NjEwggEiMA0GCSqGSIb3DQEBAQUAA4IBDwAw
ggEKAoIBAQCpWEkTfHBBUbTQE1BTDiyGLEVs3ErV4fcm04K10lnUNwuQgzQ7cevJ
mcr9ntX/vtSABkzvQA2b+cR0cKxbjlQNcqGSaVDG5H0IhBqlAsajXMDcVTu7vRpG
MUU3fiPAx9v+5TleqbJ0WN5ptA9SSUPeLEkBKTe9Ha2KHTtqLxdUWWMmGMdbbjCb
iHqfz9gOVRWWGWDvQxPIKBTCkDfTs3F8OKW/PGmr+E3SZPVCkh0eifl3YY4h4Xcf
AB9r2lhqfJsx1fyiLSAAfalP78ENWqCVG0d5q3xQLHFaTsygM8gzTcfCzg5Qy3eK
yJtjwVLHI6OiiDTFVwbFkLi3gSyHdxTtAgMBAAEwDQYJKoZIhvcNAQELBQADggEB
AARF1M09vs9hhv6qa/JzAMta1g8AKnzFYWhgK5N+yuKkoHuj/vIhN6hks1l4xMgG
fe+0DB2gFRr0b4tNixt4qJknmkRG7WmIJhGAXm0PKSgSLWMIZF0qVpeoP0qM5VEO
MX8oNSnm9rfYO3gJiEDmmfkTsGsfY8sD9594P7bp52lSKUobyBdy3KnRfxG5YG/0
sythmwZ8xz+vRjye+N1Iq1jwqS2S6H0/xiZIwyl+IcH+9QhHV2SAZeccJloXfVG0
RF6u1TiKzhbnB024vJ2bh0VQUT1zAVqY8ty9oG2o6PYJSRUw1Na6yJ4lH5hfnjth
mr5dB+crtFP75fMneECdxwY=
-----END CERTIFICATE-----
