Certificate:
    Data:
        Version: 3 (0x2)
        Serial Number: 4096 (0x1000)
        Signature Algorithm: sha256WithRSAEncryption
        Issuer: C=CA, ST=Quebec, L=Sherbrooke, O=Universite de Sherbrooke, OU=GEGI, CN=autorite/emailAddress=autorite@gegi
        Validity
            Not Before: Jan 14 02:44:31 2026 GMT
            Not After : Jan 14 02:44:31 2027 GMT
        Subject: C=CA, ST=Quebec, O=Universite de Sherbrooke, OU=GEGI, CN=gei761
        Subject Public Key Info:
            Public Key Algorithm: rsaEncryption
                Public-Key: (2048 bit)
                Modulus:
                    00:c5:d4:19:04:1b:a2:06:80:d6:3b:0b:84:ec:1e:
                    34:1e:d0:fb:7d:9a:c5:46:0a:f1:54:de:d2:65:3a:
                    45:33:22:ad:d0:bf:a9:8a:56:04:cc:ac:89:95:46:
                    60:67:a2:a6:07:0f:76:cb:34:f2:68:1e:08:85:e5:
                    6e:53:71:b0:de:a4:9e:f7:b2:0e:bc:47:17:48:37:
                    53:d8:be:fb:db:20:bc:77:4c:09:3d:c5:5f:f2:b9:
                    8b:5b:da:4d:c5:0d:15:3e:bd:08:77:69:90:e9:d2:
                    66:ee:35:82:48:ab:b5:11:0f:8c:45:0c:ab:a4:72:
                    af:9d:d4:37:7e:fb:fa:84:5b:d6:0b:7f:f8:28:87:
                    2e:dd:63:3c:81:12:30:78:c3:c9:11:66:14:b4:24:
                    da:bf:9e:58:3d:8a:b9:e1:4a:64:09:d7:4a:00:61:
                    7a:b9:60:10:49:bd:f4:7d:50:b0:32:2d:f5:d3:3f:
                    f8:7b:ce:6c:f3:03:f5:ee:26:57:6b:2f:5f:ba:35:
                    70:a9:4f:f5:0a:fd:47:2f:38:25:86:1d:96:23:41:
                    ed:71:72:d0:b3:b1:f0:0e:c1:93:97:34:8c:e6:9d:
                    28:ed:d8:36:b8:31:41:0b:da:de:c4:66:a4:bf:58:
                    2c:84:77:e9:25:29:6a:7b:b8:26:d1:0d:bf:f9:85:
                    17:53
                Exponent: 65537 (0x10001)
        X509v3 extensions:
            X509v3 Basic Constraints: critical
                CA:FALSE
            X509v3 Subject Key Identifier: 
                B6:12:F4:80:B4:21:1F:79:31:C0:C9:B7:F1:B1:C1:C9:77:B3:F9:10
            X509v3 Authority Key Identifier: 
                DC:C0:97:C2:7E:9F:94:CC:0B:6D:60:44:ED:1F:7D:ED:8E:4F:34:C9
    Signature Algorithm: sha256WithRSAEncryption
    Signature Value:
        9d:b8:c1:26:b5:b9:cf:3e:18:87:77:46:24:30:01:28:dd:ff:
        1c:b8:47:49:1b:f8:09:2f:90:59:df:35:c4:f3:14:55:a5:d4:
        a5:e4:0b:2d:49:94:dc:f9:62:e3:f2:45:b0:c0:97:f1:26:0c:
        54:6e:77:e9:5b:ce:ac:04:d4:49:19:5f:7a:7a:04:58:ae:62:
        d9:f6:f4:e3:2d:bc:84:3c:26:aa:bc:8d:82:f3:21:5e:be:c3:
        74:2d:b2:e1:4d:ba:9e:6b:b3:cb:5a:65:dd:74:a6:2b:45:50:
        6b:a2:0a:91:24:d8:c3:4c:72:4b:6d:a1:1a:52:67:8a:fd:d7:
        6e:6f:a5:65:71:51:5c:ff:7d:2b:74:d3:b0:fb:c1:90:2e:54:
        08:e4:b2:be:ec:4b:22:49:94:55:28:08:4e:9c:6c:1e:fe:3d:
        c4:b6:fb:90:83:a8:44:04:84:75:e8:4d:c5:3f:b8:00:d7:2e:
        63:f1:64:18:4a:56:d6:92:b7:52:37:17:4d:6b:9e:e7:ab:af:
        8f:bc:bc:2f:e8:02:84:ab:c3:31:1c:f8:14:d9:df:6e:21:e1:
        9c:1d:55:3e:8c:78:e9:47:56:d7:f8:e3:35:ed:77:ec:36:fd:
        4f:80:51:b8:ef:fa:ea:e6:4e:00:f2:6e:81:e1:96:c1:e5:90:
        9d:0e:6c:92
-----BEGIN CERTIFICATE-----
MIIDxDCCAqygAwIBAgICEAAwDQYJKoZIhvcNAQELBQAwgZYxCzAJBgNVBAYTAkNB
MQ8wDQYDVQQIDAZRdWViZWMxEzARBgNVBAcMClNoZXJicm9va2UxITAfBgNVBAoM
GFVuaXZlcnNpdGUgZGUgU2hlcmJyb29rZTENMAsGA1UECwwER0VHSTERMA8GA1UE
AwwIYXV0b3JpdGUxHDAaBgkqhkiG9w0BCQEWDWF1dG9yaXRlQGdlZ2kwHhcNMjYw
MTE0MDI0NDMxWhcNMjcwMTE0MDI0NDMxWjBhMQswCQYDVQQGEwJDQTEPMA0GA1UE
CAwGUXVlYmVjMSEwHwYDVQQKDBhVbml2ZXJzaXRlIGRlIFNoZXJicm9va2UxDTAL
BgNVBAsMBEdFR0kxDzANBgNVBAMMBmdlaTc2MTCCASIwDQYJKoZIhvcNAQEBBQAD
ggEPADCCAQoCggEBAMXUGQQbogaA1jsLhOweNB7Q+32axUYK8VTe0mU6RTMirdC/
qYpWBMysiZVGYGeipgcPdss08mgeCIXlblNxsN6knveyDrxHF0g3U9i++9sgvHdM
CT3FX/K5i1vaTcUNFT69CHdpkOnSZu41gkirtREPjEUMq6Ryr53UN377+oRb1gt/
+CiHLt1jPIESMHjDyRFmFLQk2r+eWD2KueFKZAnXSgBherlgEEm99H1QsDIt9dM/
+HvObPMD9e4mV2svX7o1cKlP9Qr9Ry84JYYdliNB7XFy0LOx8A7Bk5c0jOadKO3Y
NrgxQQva3sRmpL9YLIR36SUpanu4JtENv/mFF1MCAwEAAaNQME4wDAYDVR0TAQH/
BAIwADAdBgNVHQ4EFgQUthL0gLQhH3kxwMm38bHByXez+RAwHwYDVR0jBBgwFoAU
3MCXwn6flMwLbWBE7R997Y5PNMkwDQYJKoZIhvcNAQELBQADggEBAJ24wSa1uc8+
GId3RiQwASjd/xy4R0kb+AkvkFnfNcTzFFWl1KXkCy1JlNz5YuPyRbDAl/EmDFRu
d+lbzqwE1EkZX3p6BFiuYtn29OMtvIQ8Jqq8jYLzIV6+w3QtsuFNup5rs8taZd10
pitFUGuiCpEk2MNMckttoRpSZ4r9125vpWVxUVz/fSt007D7wZAuVAjksr7sSyJJ
lFUoCE6cbB7+PcS2+5CDqEQEhHXoTcU/uADXLmPxZBhKVtaSt1I3F01rnuerr4+8
vC/oAoSrwzEc+BTZ324h4ZwdVT6MeOlHVtf44zXtd+w2/U+AUbjv+urmTgDyboHh
lsHlkJ0ObJI=
-----END CERTIFICATE-----
