Certificate:
    Data:
        Version: 3 (0x2)
        Serial Number: 4097 (0x1001)
        Signature Algorithm: sha256WithRSAEncryption
        Issuer: C=CA, ST=Quebec, L=Sherbrooke, O=Universite de Sherbrooke, OU=GEGI, CN=autorite/emailAddress=autorite@gegi
        Validity
            Not Before: Jan 14 02:51:21 2026 GMT
            Not After : Jan 14 02:51:21 2027 GMT
        Subject: C=CA, ST=Quebec, O=Universite de Sherbrooke, OU=GEGI, CN=gei761
        Subject Public Key Info:
            Public Key Algorithm: rsaEncryption
                Public-Key: (2048 bit)
                Modulus:
                    00:e3:22:1b:d1:47:26:f5:ce:b7:26:90:4d:1c:bf:
                    f3:81:c3:2a:51:0b:c3:3e:21:b1:b1:8c:84:36:6c:
                    39:61:2a:6b:90:34:f7:d0:ff:29:25:ba:65:7f:b7:
                    1e:d7:df:94:a3:b4:28:af:89:88:e1:ec:2e:22:11:
                    6b:ae:8d:d5:75:8d:70:06:80:43:0f:57:6e:7c:92:
                    23:c9:aa:9d:cf:b8:56:71:11:ca:c4:e2:a2:8a:fc:
                    43:8b:7b:66:96:b8:79:4a:08:00:c7:3c:d8:73:bd:
                    1a:48:f2:69:9a:9c:68:bc:9a:e4:6b:30:bb:b2:cd:
                    bc:6d:a8:4a:09:51:8c:08:71:75:be:69:fb:7b:f4:
                    49:31:aa:5d:16:9a:6b:e5:88:14:ca:bc:d9:0d:78:
                    1a:5b:0e:51:a4:e7:54:85:cf:6f:b6:9f:f9:53:94:
                    d2:e4:2b:16:cf:80:69:6e:5c:1d:ad:8d:f8:94:2d:
                    e1:1d:c9:78:93:84:1b:2a:49:09:d5:a5:3d:88:36:
                    e5:9a:74:fe:50:b0:8e:7c:25:b9:d4:3d:d9:ba:74:
                    12:dd:3c:76:b2:c3:8c:ec:6e:5a:3d:cb:3c:c1:84:
                    ef:5c:ba:a9:18:10:d6:a0:28:b7:d8:31:ca:64:aa:
                    c4:80:d5:77:94:f4:81:ff:15:94:a0:38:87:59:db:
                    2a:85
                Exponent: 65537 (0x10001)
        X509v3 extensions:
            X509v3 Basic Constraints: critical
                CA:FALSE
            X509v3 Subject Key Identifier: 
                B1:9E:C3:6D:18:3B:88:F7:18:E8:3A:2B:6E:4F:F1:6E:42:6E:0D:76
            X509v3 Authority Key Identifier: 
                DC:C0:97:C2:7E:9F:94:CC:0B:6D:60:44:ED:1F:7D:ED:8E:4F:34:C9
    Signature Algorithm: sha256WithRSAEncryption
    Signature Value:
        7d:e1:a7:0a:78:a8:05:2c:53:35:40:f7:e3:e3:5d:a3:a5:f6:
        2f:4e:45:cc:10:3c:67:a2:e0:a8:70:5e:ee:46:45:38:b9:4e:
        85:4f:86:2b:94:6f:b5:39:02:a0:4e:32:73:a9:3e:43:5e:5a:
        39:ee:90:05:64:93:d1:31:29:e4:09:df:1a:2e:e2:ae:dc:81:
        eb:aa:a0:a4:4e:02:ff:df:83:79:98:f8:b7:f2:88:64:ba:c4:
        3d:ce:21:12:68:fd:d4:65:fe:e4:63:15:ee:3b:0a:f1:13:27:
        59:8f:8a:42:f8:1e:5e:7e:51:9a:4c:50:fb:5b:de:84:45:c0:
        70:8b:e3:34:5d:19:1d:ab:c9:92:4c:98:74:2f:6b:04:19:a9:
        a7:b9:99:3b:dd:48:f0:61:53:45:0f:6d:f4:31:0b:2c:09:81:
        d6:93:df:20:a5:e2:a8:a2:7f:2e:a0:a1:bc:00:03:d1:38:dd:
        16:47:3b:6b:20:49:0b:25:57:ea:dd:ee:50:e3:07:e8:21:48:
        bd:fd:5c:75:8f:20:9a:eb:35:15:5d:41:99:dd:04:02:b1:df:
        06:1a:b5:b3:db:eb:92:2c:ce:bb:47:aa:83:8f:3c:ac:37:9a:
        95:d8:ba:fb:7e:0e:bb:8b:ab:cc:5e:b2:1e:b3:9a:19:94:75:
        04:81:19:26
-----BEGIN CERTIFICATE-----
MIIDxDCCAqygAwIBAgICEAEwDQYJKoZIhvcNAQELBQAwgZYxCzAJBgNVBAYTAkNB
MQ8wDQYDVQQIDAZRdWViZWMxEzARBgNVBAcMClNoZXJicm9va2UxITAfBgNVBAoM
GFVuaXZlcnNpdGUgZGUgU2hlcmJyb29rZTENMAsGA1UECwwER0VHSTERMA8GA1UE
AwwIYXV0b3JpdGUxHDAaBgkqhkiG9w0BCQEWDWF1dG9yaXRlQGdlZ2kwHhcNMjYw
MTE0MDI1MTIxWhcNMjcwMTE0MDI1MTIxWjBhMQswCQYDVQQGEwJDQTEPMA0GA1UE
CAwGUXVlYmVjMSEwHwYDVQQKDBhVbml2ZXJzaXRlIGRlIFNoZXJicm9va2UxDTAL
BgNVBAsMBEdFR0kxDzANBgNVBAMMBmdlaTc2MTCCASIwDQYJKoZIhvcNAQEBBQAD
ggEPADCCAQoCggEBAOMiG9FHJvXOtyaQTRy/84HDKlELwz4hsbGMhDZsOWEqa5A0
99D/KSW6ZX+3HtfflKO0KK+JiOHsLiIRa66N1XWNcAaAQw9XbnySI8mqnc+4VnER
ysTioor8Q4t7Zpa4eUoIAMc82HO9GkjyaZqcaLya5Gswu7LNvG2oSglRjAhxdb5p
+3v0STGqXRaaa+WIFMq82Q14GlsOUaTnVIXPb7af+VOU0uQrFs+AaW5cHa2N+JQt
4R3JeJOEGypJCdWlPYg25Zp0/lCwjnwludQ92bp0Et08drLDjOxuWj3LPMGE71y6
qRgQ1qAot9gxymSqxIDVd5T0gf8VlKA4h1nbKoUCAwEAAaNQME4wDAYDVR0TAQH/
BAIwADAdBgNVHQ4EFgQUsZ7DbRg7iPcY6Dorbk/xbkJuDXYwHwYDVR0jBBgwFoAU
3MCXwn6flMwLbWBE7R997Y5PNMkwDQYJKoZIhvcNAQELBQADggEBAH3hpwp4qAUs
UzVA9+PjXaOl9i9ORcwQPGei4KhwXu5GRTi5ToVPhiuUb7U5AqBOMnOpPkNeWjnu
kAVkk9ExKeQJ3xou4q7cgeuqoKROAv/fg3mY+LfyiGS6xD3OIRJo/dRl/uRjFe47
CvETJ1mPikL4Hl5+UZpMUPtb3oRFwHCL4zRdGR2ryZJMmHQvawQZqae5mTvdSPBh
U0UPbfQxCywJgdaT3yCl4qiify6gobwAA9E43RZHO2sgSQslV+rd7lDjB+ghSL39
XHWPIJrrNRVdQZndBAKx3wYatbPb65IszrtHqoOPPKw3mpXYuvt+DruLq8xesh6z
mhmUdQSBGSY=
-----END CERTIFICATE-----
